; Function Attrs: nounwind sspstrong uwtable
define hidden i64 @rb_float_numerator(i64 noundef %0) #0 {
  %2 = and i64 %0, 3
  %3 = icmp eq i64 %2, 2
  br i1 %3, label %4, label %11

4:                                                ; preds = %1
  %.not.i.i = icmp eq i64 %0, -9223372036854775806
  br i1 %.not.i.i, label %rb_float_value_inline.exit, label %5

5:                                                ; preds = %4
  %.neg.i.i = ashr i64 %0, 63
  %6 = add nsw i64 %.neg.i.i, 2
  %7 = and i64 %0, -4
  %8 = or i64 %6, %7
  %9 = tail call noundef i64 @llvm.fshl.i64(i64 range(i64 1, 0) %8, i64 range(i64 1, 0) %8, i64 61)
  %10 = bitcast i64 %9 to double
  br label %rb_float_value_inline.exit

11:                                               ; preds = %1
  %12 = inttoptr i64 %0 to ptr
  %13 = getelementptr inbounds nuw i8, ptr %12, i64 16
  %14 = load double, ptr %13, align 8, !tbaa !22
  br label %rb_float_value_inline.exit

rb_float_value_inline.exit:                       ; preds = %4, %5, %11
  %.0.i = phi double [ %14, %11 ], [ %10, %5 ], [ 0.000000e+00, %4 ]
  %15 = tail call double @llvm.fabs.f64(double %.0.i)
  %16 = fcmp ueq double %15, 0x7FF0000000000000
  br i1 %16, label %22, label %17

17:                                               ; preds = %rb_float_value_inline.exit
  %18 = tail call i64 @float_to_r(i64 noundef %0)
  %19 = inttoptr i64 %18 to ptr
  %20 = getelementptr inbounds nuw i8, ptr %19, i64 16
  %21 = load i64, ptr %20, align 8, !tbaa !19
  br label %22

22:                                               ; preds = %rb_float_value_inline.exit, %17
  %.0 = phi i64 [ %21, %17 ], [ %0, %rb_float_value_inline.exit ]
  ret i64 %.0
}